target datalayout = "e-m:e-p270:32:32-p271:32:32-p272:64:64-i64:64-i128:128-f80:128-n8:16:32:64-S128"
target triple = "x86_64-unknown-linux-gnu"

%"class.facebook::velox::HashStringAllocator::Header" = type { i32 }
%"class.facebook::velox::HashStringAllocator" = type { %"class.facebook::velox::StreamArena", [3058 x %"class.facebook::velox::CompactDoubleList"], [48 x i64], i64, i64, i64, %"struct.facebook::velox::HashStringAllocator::Position", ptr, %"class.facebook::velox::memory::AllocationPool", %"class.folly::F14FastMap", i64 }
%"class.facebook::velox::StreamArena" = type { ptr, ptr, i64, %"class.std::vector", %"class.facebook::velox::memory::Allocation", i32, i32, %"class.std::vector.8", i64, %"class.std::vector.13" }
%"class.std::vector" = type { %"struct.std::_Vector_base" }
%"struct.std::_Vector_base" = type { %"struct.std::_Vector_base<std::unique_ptr<facebook::velox::memory::Allocation>, std::allocator<std::unique_ptr<facebook::velox::memory::Allocation>>>::_Vector_impl" }
%"struct.std::_Vector_base<std::unique_ptr<facebook::velox::memory::Allocation>, std::allocator<std::unique_ptr<facebook::velox::memory::Allocation>>>::_Vector_impl" = type { %"struct.std::_Vector_base<std::unique_ptr<facebook::velox::memory::Allocation>, std::allocator<std::unique_ptr<facebook::velox::memory::Allocation>>>::_Vector_impl_data" }
%"struct.std::_Vector_base<std::unique_ptr<facebook::velox::memory::Allocation>, std::allocator<std::unique_ptr<facebook::velox::memory::Allocation>>>::_Vector_impl_data" = type { ptr, ptr, ptr }
%"class.facebook::velox::memory::Allocation" = type <{ ptr, %"class.std::vector.3", i32, [4 x i8] }>
%"class.std::vector.3" = type { %"struct.std::_Vector_base.4" }
%"struct.std::_Vector_base.4" = type { %"struct.std::_Vector_base<facebook::velox::memory::Allocation::PageRun, std::allocator<facebook::velox::memory::Allocation::PageRun>>::_Vector_impl" }
%"struct.std::_Vector_base<facebook::velox::memory::Allocation::PageRun, std::allocator<facebook::velox::memory::Allocation::PageRun>>::_Vector_impl" = type { %"struct.std::_Vector_base<facebook::velox::memory::Allocation::PageRun, std::allocator<facebook::velox::memory::Allocation::PageRun>>::_Vector_impl_data" }
%"struct.std::_Vector_base<facebook::velox::memory::Allocation::PageRun, std::allocator<facebook::velox::memory::Allocation::PageRun>>::_Vector_impl_data" = type { ptr, ptr, ptr }
%"class.std::vector.8" = type { %"struct.std::_Vector_base.9" }
%"struct.std::_Vector_base.9" = type { %"struct.std::_Vector_base<facebook::velox::memory::ContiguousAllocation, std::allocator<facebook::velox::memory::ContiguousAllocation>>::_Vector_impl" }
%"struct.std::_Vector_base<facebook::velox::memory::ContiguousAllocation, std::allocator<facebook::velox::memory::ContiguousAllocation>>::_Vector_impl" = type { %"struct.std::_Vector_base<facebook::velox::memory::ContiguousAllocation, std::allocator<facebook::velox::memory::ContiguousAllocation>>::_Vector_impl_data" }
%"struct.std::_Vector_base<facebook::velox::memory::ContiguousAllocation, std::allocator<facebook::velox::memory::ContiguousAllocation>>::_Vector_impl_data" = type { ptr, ptr, ptr }
%"class.std::vector.13" = type { %"struct.std::_Vector_base.14" }
%"struct.std::_Vector_base.14" = type { %"struct.std::_Vector_base<std::__cxx11::basic_string<char>, std::allocator<std::__cxx11::basic_string<char>>>::_Vector_impl" }
%"struct.std::_Vector_base<std::__cxx11::basic_string<char>, std::allocator<std::__cxx11::basic_string<char>>>::_Vector_impl" = type { %"struct.std::_Vector_base<std::__cxx11::basic_string<char>, std::allocator<std::__cxx11::basic_string<char>>>::_Vector_impl_data" }
%"struct.std::_Vector_base<std::__cxx11::basic_string<char>, std::allocator<std::__cxx11::basic_string<char>>>::_Vector_impl_data" = type { ptr, ptr, ptr }
%"class.facebook::velox::CompactDoubleList" = type { i32, i32, i16, i16 }
%"struct.facebook::velox::HashStringAllocator::Position" = type { ptr, ptr }
%"class.facebook::velox::memory::AllocationPool" = type { ptr, %"class.std::vector.18", %"class.std::vector.8", ptr, i64, i64, i64, i64 }
%"class.std::vector.18" = type { %"struct.std::_Vector_base.19" }
%"struct.std::_Vector_base.19" = type { %"struct.std::_Vector_base<facebook::velox::memory::Allocation, std::allocator<facebook::velox::memory::Allocation>>::_Vector_impl" }
%"struct.std::_Vector_base<facebook::velox::memory::Allocation, std::allocator<facebook::velox::memory::Allocation>>::_Vector_impl" = type { %"struct.std::_Vector_base<facebook::velox::memory::Allocation, std::allocator<facebook::velox::memory::Allocation>>::_Vector_impl_data" }
%"struct.std::_Vector_base<facebook::velox::memory::Allocation, std::allocator<facebook::velox::memory::Allocation>>::_Vector_impl_data" = type { ptr, ptr, ptr }
%"class.folly::F14FastMap" = type { %"class.folly::F14ValueMap" }
%"class.folly::F14ValueMap" = type { %"class.folly::f14::detail::F14BasicMap" }
%"class.folly::f14::detail::F14BasicMap" = type { %"class.folly::f14::detail::F14Table" }
%"class.folly::f14::detail::F14Table" = type { ptr, i64, %"struct.folly::f14::detail::SizeAndPackedBegin" }
%"struct.folly::f14::detail::SizeAndPackedBegin" = type { i64, %"class.folly::f14::detail::PackedChunkItemPtr" }
%"class.folly::f14::detail::PackedChunkItemPtr" = type { i64 }
%"struct.facebook::velox::ByteRange" = type { ptr, i32, i32 }

; Function Attrs: mustprogress nounwind uwtable
define linkonce_odr noundef i32 @_ZNK8facebook5velox19HashStringAllocator6Header4sizeEv(ptr noundef nonnull align 4 dereferenceable(4) %this) #2 comdat align 2 {
entry:
  %this.addr = alloca ptr, align 8
  store ptr %this, ptr %this.addr, align 8
  %this1 = load ptr, ptr %this.addr, align 8
  %data_ = getelementptr inbounds %"class.facebook::velox::HashStringAllocator::Header", ptr %this1, i32 0, i32 0
  %0 = load i32, ptr %data_, align 4
  %and = and i32 %0, 536870911
  ret i32 %and
}

; Function Attrs: mustprogress nounwind uwtable
define linkonce_odr noundef nonnull align 4 dereferenceable(4) ptr @_ZSt3minIiERKT_S2_S2_(ptr noundef nonnull align 4 dereferenceable(4) %__a, ptr noundef nonnull align 4 dereferenceable(4) %__b) #2 comdat {
entry:
  %retval = alloca ptr, align 8
  %__a.addr = alloca ptr, align 8
  %__b.addr = alloca ptr, align 8
  store ptr %__a, ptr %__a.addr, align 8
  store ptr %__b, ptr %__b.addr, align 8
  %0 = load ptr, ptr %__b.addr, align 8
  %1 = load i32, ptr %0, align 4
  %2 = load ptr, ptr %__a.addr, align 8
  %3 = load i32, ptr %2, align 4
  %cmp = icmp slt i32 %1, %3
  br i1 %cmp, label %if.then, label %if.end

if.then:                                          ; preds = %entry
  %4 = load ptr, ptr %__b.addr, align 8
  store ptr %4, ptr %retval, align 8
  br label %return

if.end:                                           ; preds = %entry
  %5 = load ptr, ptr %__a.addr, align 8
  store ptr %5, ptr %retval, align 8
  br label %return

return:                                           ; preds = %if.end, %if.then
  %6 = load ptr, ptr %retval, align 8
  ret ptr %6
}

; Function Attrs: mustprogress nounwind uwtable
define linkonce_odr void @_ZN8facebook5velox19HashStringAllocator6Header12setContinuedEv(ptr noundef nonnull align 4 dereferenceable(4) %this) #2 comdat align 2 {
entry:
  %this.addr = alloca ptr, align 8
  store ptr %this, ptr %this.addr, align 8
  %this1 = load ptr, ptr %this.addr, align 8
  %data_ = getelementptr inbounds %"class.facebook::velox::HashStringAllocator::Header", ptr %this1, i32 0, i32 0
  %0 = load i32, ptr %data_, align 4
  %or = or i32 %0, 1073741824
  store i32 %or, ptr %data_, align 4
  ret void
}

; Function Attrs: mustprogress nounwind uwtable
define linkonce_odr noundef ptr @_ZN8facebook5velox19HashStringAllocator6Header5beginEv(ptr noundef nonnull align 4 dereferenceable(4) %this) #2 comdat align 2 {
entry:
  %this.addr = alloca ptr, align 8
  store ptr %this, ptr %this.addr, align 8
  %this1 = load ptr, ptr %this.addr, align 8
  %add.ptr = getelementptr inbounds %"class.facebook::velox::HashStringAllocator::Header", ptr %this1, i64 1
  ret ptr %add.ptr
}

; Function Attrs: mustprogress nounwind uwtable
define linkonce_odr noundef ptr @_ZN8facebook5velox19HashStringAllocator6Header3endEv(ptr noundef nonnull align 4 dereferenceable(4) %this) #2 comdat align 2 {
entry:
  %this.addr = alloca ptr, align 8
  store ptr %this, ptr %this.addr, align 8
  %this1 = load ptr, ptr %this.addr, align 8
  %call = call noundef ptr @_ZN8facebook5velox19HashStringAllocator6Header5beginEv(ptr noundef nonnull align 4 dereferenceable(4) %this1)
  %call2 = call noundef i32 @_ZNK8facebook5velox19HashStringAllocator6Header4sizeEv(ptr noundef nonnull align 4 dereferenceable(4) %this1)
  %idx.ext = sext i32 %call2 to i64
  %add.ptr = getelementptr inbounds i8, ptr %call, i64 %idx.ext
  ret ptr %add.ptr
}

; Function Attrs: mustprogress uwtable
define void @_ZN8facebook5velox19HashStringAllocator8newRangeEiPNS0_9ByteRangeES3_b(ptr noundef nonnull align 8 dereferenceable(37416) %this, i32 noundef %bytes, ptr noundef %lastRange, ptr noundef %range, i1 noundef zeroext %contiguous) #0 align 2 {
entry:
  %this.addr = alloca ptr, align 8
  %bytes.addr = alloca i32, align 4
  %lastRange.addr = alloca ptr, align 8
  %range.addr = alloca ptr, align 8
  %contiguous.addr = alloca i8, align 1
  %newHeader = alloca ptr, align 8
  %lastWordPtr = alloca ptr, align 8
  %ref.tmp = alloca %"struct.facebook::velox::ByteRange", align 8
  store ptr %this, ptr %this.addr, align 8
  store i32 %bytes, ptr %bytes.addr, align 4
  store ptr %lastRange, ptr %lastRange.addr, align 8
  store ptr %range, ptr %range.addr, align 8
  %frombool = zext i1 %contiguous to i8
  store i8 %frombool, ptr %contiguous.addr, align 1
  %this1 = load ptr, ptr %this.addr, align 8
  %currentHeader_ = getelementptr inbounds %"class.facebook::velox::HashStringAllocator", ptr %this1, i32 0, i32 7
  %0 = load ptr, ptr %currentHeader_, align 8
  %tobool = icmp ne ptr %0, null
  %lnot = xor i1 %tobool, true
  br i1 %lnot, label %if.then, label %if.end

if.then:                                          ; preds = %entry
  call void @llvm.trap()
  br label %if.end

if.end:                                           ; preds = %if.then, %entry
  %1 = load i32, ptr %bytes.addr, align 4
  %2 = load i8, ptr %contiguous.addr, align 1
  %tobool2 = trunc i8 %2 to i1
  %call = call noundef ptr @_ZN8facebook5velox19HashStringAllocator8allocateEib(ptr noundef nonnull align 8 dereferenceable(37416) %this1, i32 noundef %1, i1 noundef zeroext %tobool2)
  store ptr %call, ptr %newHeader, align 8
  %currentHeader_3 = getelementptr inbounds %"class.facebook::velox::HashStringAllocator", ptr %this1, i32 0, i32 7
  %3 = load ptr, ptr %currentHeader_3, align 8
  %call4 = call noundef ptr @_ZN8facebook5velox19HashStringAllocator6Header3endEv(ptr noundef nonnull align 4 dereferenceable(4) %3)
  %add.ptr = getelementptr inbounds i8, ptr %call4, i64 -8
  store ptr %add.ptr, ptr %lastWordPtr, align 8
  %4 = load ptr, ptr %lastWordPtr, align 8
  %5 = load ptr, ptr %4, align 8
  %6 = load ptr, ptr %newHeader, align 8
  %call5 = call noundef ptr @_ZN8facebook5velox19HashStringAllocator6Header5beginEv(ptr noundef nonnull align 4 dereferenceable(4) %6)
  store ptr %5, ptr %call5, align 8
  %7 = load ptr, ptr %newHeader, align 8
  %8 = load ptr, ptr %lastWordPtr, align 8
  store ptr %7, ptr %8, align 8
  %currentHeader_6 = getelementptr inbounds %"class.facebook::velox::HashStringAllocator", ptr %this1, i32 0, i32 7
  %9 = load ptr, ptr %currentHeader_6, align 8
  call void @_ZN8facebook5velox19HashStringAllocator6Header12setContinuedEv(ptr noundef nonnull align 4 dereferenceable(4) %9)
  %10 = load ptr, ptr %newHeader, align 8
  %currentHeader_7 = getelementptr inbounds %"class.facebook::velox::HashStringAllocator", ptr %this1, i32 0, i32 7
  store ptr %10, ptr %currentHeader_7, align 8
  %11 = load ptr, ptr %lastRange.addr, align 8
  %tobool8 = icmp ne ptr %11, null
  br i1 %tobool8, label %if.then9, label %if.end14

if.then9:                                         ; preds = %if.end
  %12 = load ptr, ptr %lastRange.addr, align 8
  %size = getelementptr inbounds %"struct.facebook::velox::ByteRange", ptr %12, i32 0, i32 1
  %13 = load i32, ptr %size, align 8
  %conv = sext i32 %13 to i64
  %sub = sub i64 %conv, 8
  %conv10 = trunc i64 %sub to i32
  store i32 %conv10, ptr %size, align 8
  %14 = load ptr, ptr %lastRange.addr, align 8
  %size11 = getelementptr inbounds %"struct.facebook::velox::ByteRange", ptr %14, i32 0, i32 1
  %15 = load ptr, ptr %lastRange.addr, align 8
  %position = getelementptr inbounds %"struct.facebook::velox::ByteRange", ptr %15, i32 0, i32 2
  %call12 = call noundef nonnull align 4 dereferenceable(4) ptr @_ZSt3minIiERKT_S2_S2_(ptr noundef nonnull align 4 dereferenceable(4) %size11, ptr noundef nonnull align 4 dereferenceable(4) %position)
  %16 = load i32, ptr %call12, align 4
  %17 = load ptr, ptr %lastRange.addr, align 8
  %position13 = getelementptr inbounds %"struct.facebook::velox::ByteRange", ptr %17, i32 0, i32 2
  store i32 %16, ptr %position13, align 4
  br label %if.end14

if.end14:                                         ; preds = %if.then9, %if.end
  %buffer = getelementptr inbounds %"struct.facebook::velox::ByteRange", ptr %ref.tmp, i32 0, i32 0
  %currentHeader_15 = getelementptr inbounds %"class.facebook::velox::HashStringAllocator", ptr %this1, i32 0, i32 7
  %18 = load ptr, ptr %currentHeader_15, align 8
  %call16 = call noundef ptr @_ZN8facebook5velox19HashStringAllocator6Header5beginEv(ptr noundef nonnull align 4 dereferenceable(4) %18)
  store ptr %call16, ptr %buffer, align 8
  %size17 = getelementptr inbounds %"struct.facebook::velox::ByteRange", ptr %ref.tmp, i32 0, i32 1
  %currentHeader_18 = getelementptr inbounds %"class.facebook::velox::HashStringAllocator", ptr %this1, i32 0, i32 7
  %19 = load ptr, ptr %currentHeader_18, align 8
  %call19 = call noundef i32 @_ZNK8facebook5velox19HashStringAllocator6Header4sizeEv(ptr noundef nonnull align 4 dereferenceable(4) %19)
  store i32 %call19, ptr %size17, align 8
  %position20 = getelementptr inbounds %"struct.facebook::velox::ByteRange", ptr %ref.tmp, i32 0, i32 2
  store i32 8, ptr %position20, align 4
  %20 = load ptr, ptr %range.addr, align 8
  call void @llvm.memcpy.p0.p0.i64(ptr align 8 %20, ptr align 8 %ref.tmp, i64 16, i1 false)
  ret void
}

; Function Attrs: mustprogress uwtable
define void @_ZN8facebook5velox19HashStringAllocator8newRangeEiPNS0_9ByteRangeES3_(ptr noundef nonnull align 8 dereferenceable(37416) %this, i32 noundef %bytes, ptr noundef %lastRange, ptr noundef %range) unnamed_addr #0 align 2 {
entry:
  %this.addr = alloca ptr, align 8
  %bytes.addr = alloca i32, align 4
  %lastRange.addr = alloca ptr, align 8
  %range.addr = alloca ptr, align 8
  store ptr %this, ptr %this.addr, align 8
  store i32 %bytes, ptr %bytes.addr, align 4
  store ptr %lastRange, ptr %lastRange.addr, align 8
  store ptr %range, ptr %range.addr, align 8
  %this1 = load ptr, ptr %this.addr, align 8
  %0 = load i32, ptr %bytes.addr, align 4
  %1 = load ptr, ptr %lastRange.addr, align 8
  %2 = load ptr, ptr %range.addr, align 8
  call void @_ZN8facebook5velox19HashStringAllocator8newRangeEiPNS0_9ByteRangeES3_b(ptr noundef nonnull align 8 dereferenceable(37416) %this1, i32 noundef %0, ptr noundef %1, ptr noundef %2, i1 noundef zeroext false)
  ret void
}