; Function Attrs: mustprogress uwtable
define void @_ZN8facebook5velox19HashStringAllocator8newRangeEiPNS0_9ByteRangeES3_(ptr noundef nonnull align 8 dereferenceable(37416) %this, i32 noundef %bytes, ptr noundef %lastRange, ptr nocapture noundef writeonly %range) unnamed_addr #0 align 2 {
entry:
  %currentHeader_.i = getelementptr inbounds i8, ptr %this, i64 37272
  %0 = load ptr, ptr %currentHeader_.i, align 8
  %tobool.not.i = icmp eq ptr %0, null
  br i1 %tobool.not.i, label %if.then.i, label %if.end.i

if.then.i:                                        ; preds = %entry
  tail call void @llvm.trap()
  unreachable

if.end.i:                                         ; preds = %entry
  %call.i = tail call noundef ptr @_ZN8facebook5velox19HashStringAllocator8allocateEib(ptr noundef nonnull align 8 dereferenceable(37416) %this, i32 noundef %bytes, i1 noundef zeroext false)
  %1 = load ptr, ptr %currentHeader_.i, align 8
  %add.ptr.i.i.i = getelementptr inbounds i8, ptr %1, i64 4
  %2 = load i32, ptr %1, align 4
  %and.i.i.i = and i32 %2, 536870911
  %idx.ext.i.i = zext nneg i32 %and.i.i.i to i64
  %add.ptr.i.i = getelementptr inbounds i8, ptr %add.ptr.i.i.i, i64 %idx.ext.i.i
  %add.ptr.i = getelementptr inbounds i8, ptr %add.ptr.i.i, i64 -8
  %3 = load ptr, ptr %add.ptr.i, align 8
  %add.ptr.i8.i = getelementptr inbounds i8, ptr %call.i, i64 4
  store ptr %3, ptr %add.ptr.i8.i, align 8
  store ptr %call.i, ptr %add.ptr.i, align 8
  %4 = load ptr, ptr %currentHeader_.i, align 8
  %5 = load i32, ptr %4, align 4
  %or.i.i = or i32 %5, 1073741824
  store i32 %or.i.i, ptr %4, align 4
  store ptr %call.i, ptr %currentHeader_.i, align 8
  %tobool8.not.i = icmp eq ptr %lastRange, null
  br i1 %tobool8.not.i, label %_ZN8facebook5velox19HashStringAllocator8newRangeEiPNS0_9ByteRangeES3_b.exit, label %if.then9.i

if.then9.i:                                       ; preds = %if.end.i
  %size.i = getelementptr inbounds i8, ptr %lastRange, i64 8
  %6 = load i32, ptr %size.i, align 8
  %sub.i = add i32 %6, -8
  store i32 %sub.i, ptr %size.i, align 8
  %position.i = getelementptr inbounds i8, ptr %lastRange, i64 12
  %7 = load i32, ptr %position.i, align 4
  %8 = tail call i32 @llvm.smin.i32(i32 %7, i32 %sub.i)
  store i32 %8, ptr %position.i, align 4
  %.pre.i = load ptr, ptr %currentHeader_.i, align 8
  br label %_ZN8facebook5velox19HashStringAllocator8newRangeEiPNS0_9ByteRangeES3_b.exit

_ZN8facebook5velox19HashStringAllocator8newRangeEiPNS0_9ByteRangeES3_b.exit: ; preds = %if.end.i, %if.then9.i
  %9 = phi ptr [ %.pre.i, %if.then9.i ], [ %call.i, %if.end.i ]
  %add.ptr.i9.i = getelementptr inbounds i8, ptr %9, i64 4
  %10 = load i32, ptr %9, align 4
  %and.i.i = and i32 %10, 536870911
  store ptr %add.ptr.i9.i, ptr %range, align 8
  %ref.tmp.sroa.2.0..sroa_idx.i = getelementptr inbounds i8, ptr %range, i64 8
  store i32 %and.i.i, ptr %ref.tmp.sroa.2.0..sroa_idx.i, align 8
  %ref.tmp.sroa.3.0..sroa_idx.i = getelementptr inbounds i8, ptr %range, i64 12
  store i32 8, ptr %ref.tmp.sroa.3.0..sroa_idx.i, align 4
  ret void
}